ccopy_reg
_reconstructor
p0
(crsa.key
PublicKey
p1
c__builtin__
object
p2
Ntp3
Rp4
(L115956088487370888245487249081233033489719369458573458051276979783432821626152499912931530749293042633154342431087757434019362609266467875796700300538567664693990121966333807572454965773980742024272882377351917111905617989033429394605703452908880585635695146748079782587446036612205461170862373281348953391199L
I65537
tp5
b.