ccopy_reg
_reconstructor
p0
(crsa.key
PublicKey
p1
c__builtin__
object
p2
Ntp3
Rp4
(L622918882817464933447528904122681160631122464968963316114329720540571885761559162891438677313247492257060005968325672541107572239058187521360129439196013704782577760577455745835181544844480509137160656791351194261179444540972437272662409456719800678975725498823018516820582944447955033833553622205667534676301585085721511802799738997522389600207913167990143345172912478293094817885768529707227183563897933403677577639266296488276570745310759361079468245788891032925009591479866291562079233449893085819988702444633452404373190788333825202902086609095469928786631481460081748521867815513098457921084326020343873548567293035053297500517050141415293461146064237776697985571643478014956102946023469731720927054260137975859135315876829527190928358450389611933041512673510222368778735316877460421175880697149082852886937962260146010457600870778920493436716281648035576975517965355053687341345271931216815716433311156569160845925610470457947541364117749477036513843133297380469816689097290918314340291975260505151284943350484620984176080905374736940626281357773779776791105686136119530287409707137423476024359846309650616763149307350532448615733893946529504180922776275078403674825803219574587093419803759637437505864327524718946757796507103L
I65537
tp5
b.