ccopy_reg
_reconstructor
p0
(crsa.key
PublicKey
p1
c__builtin__
object
p2
Ntp3
Rp4
(L627947502751237336273833324026560647938419456313530142404435290235936312587125749385193561238066404862767932384107162514174407847892487684515947993955952745247069671365904650065450720409858331075376557100978128574363333811763716908678225737622887475583020762410551852889924041365224190446157583014307162976539755078410478027801736815944113526078378391740580670685024988084675103279673590677883153788980771617326125750029435336212660886590272843139970661117915930912659250523480305880529746468364559444670350196086665991901387696426214865046244268507729749660608069322944625781227618213531840275222247891834811767714349041125759919664289686763434291690689839364370194457395831703471121000958128390785019574369941417270133496561823653131216483788648727754062493254491557128263468599887631434101569952531638384744544716902850534030302549210391066202639104878005653953839389365258973022939815252444315862259186599084009412826321646049421111851715433571762387702546743905088052529129143395677582492066501774926360660686005701232842546168712328941727811546133796622484937219044158298084978842830082335407058715466070723774423290596863123262322657023967813487532686906196887111675402418577501724652917200553988268656571874127614754391514529L
I65537
tp5
b.