ccopy_reg
_reconstructor
p0
(crsa.key
PublicKey
p1
c__builtin__
object
p2
Ntp3
Rp4
(L126738070414719558670863694340592137288337304885584826087199493113218032470803913194398759943620609561395749333661755170344457926232761274231554985613766958485368159514076315311311510845449090008559882595035882943612164632167681080947867199607459666261122137653880835111345665182666816063637001260833523237081L
I65537
tp5
b.