ccopy_reg
_reconstructor
p0
(crsa.key
PrivateKey
p1
c__builtin__
object
p2
Ntp3
Rp4
(L622918882817464933447528904122681160631122464968963316114329720540571885761559162891438677313247492257060005968325672541107572239058187521360129439196013704782577760577455745835181544844480509137160656791351194261179444540972437272662409456719800678975725498823018516820582944447955033833553622205667534676301585085721511802799738997522389600207913167990143345172912478293094817885768529707227183563897933403677577639266296488276570745310759361079468245788891032925009591479866291562079233449893085819988702444633452404373190788333825202902086609095469928786631481460081748521867815513098457921084326020343873548567293035053297500517050141415293461146064237776697985571643478014956102946023469731720927054260137975859135315876829527190928358450389611933041512673510222368778735316877460421175880697149082852886937962260146010457600870778920493436716281648035576975517965355053687341345271931216815716433311156569160845925610470457947541364117749477036513843133297380469816689097290918314340291975260505151284943350484620984176080905374736940626281357773779776791105686136119530287409707137423476024359846309650616763149307350532448615733893946529504180922776275078403674825803219574587093419803759637437505864327524718946757796507103L
I65537
L246973835407922377141165922222923650424021333441468831437428375704200983866035266926639037357636492955238219556601221833592309032450187597159186464868230466836603758653044999004857672173565795648564665853891228339449268153144449854171842582410047772136430586713113403742405469101967798329661982077178772617437789139987911602361237440096766275108754074142177467399681978668046687336066793962381420231690860148636009847547117627468123567544360761681018400271274922555555628500127343637167810579703403298084844352371265503078154163969454110993909065882428103660403015308280271504523307699037861796036775938769949664587646966648756334268839360324891885075936439177294621460501885765959289726597690853205918322812854252145668722245535006753659102897386062994747938567266848895893899477696463604605955958653015934926078640231927203128417943342323373361469435272413267461062913206456510863434520927215017880584073041362934942235921315999481373418076573021312033671222486794752314659041897526749017943866398850448483549639723639535144032910418140831858877673981898013491810217847580833350979839963617104602452476784582876515763237785808240785488084544809669970612549735188812128127260732459696211535883646391781921470236422886989778875896833L
L10364132562576281349789971268820009155323390146449290888935718785504380472509435741318811359955816434605720570141056708778532055174837457456127094334795519511223844533422179435850934466167726108893263506136766508708364330905288584514227800775478178216446933881173217577010333662810882660332609163217244588312336348039489331041269387972680476801799736853364464489496110017187084637110473563982078681418414413650500453070828269932649568236653369501024695223783659520883494094076704248004534689298018276028413085193151309248650904651757935058167812894868507049870358295981536159229354933293988223732500997244981591020076860937835387926940122933383633862856891L
L60103330313118056500579593225247956271341655592769937131294154598005647420871225942328472617432093603922962462282432522537309901980271185937869390241877391705857109675024689309465191087526783712167987989922548110227542993294952197490770720020857381019796929197914177860330023224903779621471429610561029032825468747496096901904590772584105100084118614484113078018129399764128721535901323008825359457864856441559980555892776914355082085298406602874583166851734267574809004289454329158925243636355457652678115373193913182422964970803523665613346760785469715601516365895284563666733L
L1466289838109881146150306141637534902240848275598178511714176489299122873203037798396448096945394662277251646037320564014137803310818208119584515902043487753605863657382706680641620220185653241400404950316616553530737660804642198385887669084490191318230861512523278047119029154852716847377877415221177225427346119276471994101265693658279954543331052079045353231710452600505953106722741518306328234952950828438400296029307409842005688339262554618208050019300884860119196137148163660031707976245040594707347698642154797127630059171629759889212688422741669551038313656718201981603896713940245339433415463729732354424800534882823591511033291420698735877083313L
L18873713136761975720309566024926422327299254956729867191998927348321653782161677066284998801696026463962869332953483701021069590960129102745034897099010280014442823399179213360220846736672432500670112956537620582395941755069809668192930122190964568127735795091216774957132488181767853038892259660731281222752767853631836584543028794418128430653389094497505945429499413264961305662585245396060635940657319461789590610499005888237599971244353691611744839919567438648237931371240216886501999085038914178130149600688629831915782216139532127474902365640248512246199960482246003330353L
L4880479198462184030735846669962837003105555474141367681159074803041864501519362347859542976616088380346341047841821925691957211209251659233837363597290684784051586402460266816107837283798265192451835522418148381688651064287360834693343145588472566727005968359485417684530088201061960278912491233037627232209849783785713420119942984004529181589816534311961733364304371812842575537382267500427157100395932561147351000062133635310104083124818540641097690676514532737903874972463308887388496957059121941157707355688078445682406705542271836636407878657513714753017755432916969848000265711291947263845773958369470176386658860627560125087079608997852525517793279L
tp5
b.