ccopy_reg
_reconstructor
p0
(crsa.key
PrivateKey
p1
c__builtin__
object
p2
Ntp3
Rp4
(L115956088487370888245487249081233033489719369458573458051276979783432821626152499912931530749293042633154342431087757434019362609266467875796700300538567664693990121966333807572454965773980742024272882377351917111905617989033429394605703452908880585635695146748079782587446036612205461170862373281348953391199L
I65537
L45115954351579570004298020420867008269440990613304920988899578978252796414929926534321697706276199614001290532833463948762679511935023946243191778069511341216733244510392320970696560117900405258421997792299318961930999528200548128084988042973589418092201525854773893763844474229156037342124072998382560717945L
L55064566144268834362949356798866007502150705115441505587203287849118703196453686678658437925787301806784079542007258840345881702625291950953622884902742344626834037L
L2105820432391433523451235983482206392028296764694717307763054530544383556269773506614862219596999560756145679279097179123443079812901646081850627L
L10289159970745016488528279038694373069736752290213111332848489601298619700989850726564402258864325463873504098012128900603867545513974170794788681943314200410458361L
L1635443312447307375629354549144412178486293982474506332766589094643453839007262034265884267712102837227311332284777884599920745171690312072173477L
L34554279255985364939504207901585824439614669361780320988346618249406323289158091559656546844316639870460887107885191993296564041391925814137815270350154957703591203L
tp5
b.