ccopy_reg
_reconstructor
p0
(cpaillier.paillier
PublicKey
p1
c__builtin__
object
p2
Ntp3
Rp4
(dp5
S'n_sq'
p6
L49399025268510964433913507924107868283056065217347573122735535506306812094143622599259938756672459377646506102478630345896128440467553543178327795903288494713303327614150215640219793391701372913442607498292603988302041771727575753241410143863560360317309748320529437612456145379618497587100022567610549840129L
sS'g'
p7
L7028444014752551504733887900670601356495584831143999321874688809641081590894978291508375341326947548023239401487386505449503857868829100116626554386762624L
sS'n'
p8
L7028444014752551504733887900670601356495584831143999321874688809641081590894978291508375341326947548023239401487386505449503857868829100116626554386762623L
sb.