ccopy_reg
_reconstructor
p0
(cpaillier.paillier
PublicKey
p1
c__builtin__
object
p2
Ntp3
Rp4
(dp5
S'n_sq'
p6
L4000569208422635058073020963717969604351086593632934996719480847754090895195662963056920648017778906386628838592914896472316995296121093101246290616549195074203633466330908280486936979613412410422640171827804331970876827306822030641401921515177763260647048846062284631300686248438620481985435730235223208019622216809955523181246730665061639787534284355196287726933357540766162467465974782674109780097542032469041771729367125308369899026019089481583858759771900204685437166693246045954497113674502833685663654555236513250693406502831954631618947600062438516208544070750277465903822853349875919480132492068241923697161L
sS'g'
p7
L63250053030986741284729380608354726432223272001474001176144992106717846624543078311379429010903639016977849392434508851497960743155415452528179786978538822538375097633513032229809018092913568766575936709071898635731063531183148756972108518192004427811976838416682952518980709132327344580843259420638138640132L
sS'n'
p8
L63250053030986741284729380608354726432223272001474001176144992106717846624543078311379429010903639016977849392434508851497960743155415452528179786978538822538375097633513032229809018092913568766575936709071898635731063531183148756972108518192004427811976838416682952518980709132327344580843259420638138640131L
sb.