ccopy_reg
_reconstructor
p0
(crsa.key
PrivateKey
p1
c__builtin__
object
p2
Ntp3
Rp4
(L627947502751237336273833324026560647938419456313530142404435290235936312587125749385193561238066404862767932384107162514174407847892487684515947993955952745247069671365904650065450720409858331075376557100978128574363333811763716908678225737622887475583020762410551852889924041365224190446157583014307162976539755078410478027801736815944113526078378391740580670685024988084675103279673590677883153788980771617326125750029435336212660886590272843139970661117915930912659250523480305880529746468364559444670350196086665991901387696426214865046244268507729749660608069322944625781227618213531840275222247891834811767714349041125759919664289686763434291690689839364370194457395831703471121000958128390785019574369941417270133496561823653131216483788648727754062493254491557128263468599887631434101569952531638384744544716902850534030302549210391066202639104878005653953839389365258973022939815252444315862259186599084009412826321646049421111851715433571762387702546743905088052529129143395677582492066501774926360660686005701232842546168712328941727811546133796622484937219044158298084978842830082335407058715466070723774423290596863123262322657023967813487532686906196887111675402418577501724652917200553988268656571874127614754391514529L
I65537
L432857109484564412522799246932632006824633983221997310118906399006647525175641131791591075613636387171832767953742545031666738619961106300802485108792805914510606519578651883231713409909452064706367568603899902901802614832540971894753307687609313282526489554948488495142518096536542228475450737297318162177520484236725388030943913551079409686957242812842706751588670352041034567736737020804492872050459974344024368782265434346227980655394695606477124595063292034955983555879102587827621218951963582975608095281419827316632392245201194481641349635688316510836132721054264711755074051201814173945249224510888766022931929471282361325332331395834751926541836704901556404742558844866854035521684198547966702594906133303091906615716104502313000934469498092124287721865820236175377724561660936697832706222876099087573145149112180642563095006350934200479494141583259298517055299858393548637957300580526425912304637555741668083759840069617311718383011457665700282174251198634884270852385051821561641334145977658748454417798416198338672712671860377045519178785113489829671941991912164071066363192402322845204661710948650856674945062127350399401138669218035982032422652843084211992016104719427090209978495785342484234075010142103858961134001793L
L9978457615080981575213475991951424946289413017204178157626797423471988481632929233475220917296526869354545170187047058669257170081189644540109284246599348726869921764185972538401417215399271422297443277861251206454800258497842324178393800835360520714160476766212412144133789341495105888973152432526456422126130566737535570038216521069186864201144925407838394921218092975291698376642563569749953530084886709447413106843452424505197210869330077436156219058428888716786458670117678714687183378911966015234014128439865712870565872784567290412523292724037714576099886031083355126620344176940933994168912681961948935593315265895912338494870065383759552925544981L
L62930317186714947033361675170527410506685442887692885279613071482422998190021420303215063078470118497882575300431220714344460560716858471498139920308680048149905854877502875696760083164516090898454438979455296310960086187050045877266938541020264447173560159286396567255730679882741552698909990905801047749832784992551388526301550102905171571443678794692377139705498276020629165009101407157785936933800239849948316758110984695389972481436909720441962779747386037969713282773984798485366961044008687216499817594672762433896877639698107561446314771623184266227670195497561660783709L
L260206968035970482506673031573690972018990903556799067265578174111015583794050323634117407688172550158336782212332932896924798261573662244519077265932805697151543346430166578697957215330536259833473161143550640276961924436162969498464607864681494879236160562635717416945002761563927795966478744940838213916010149054037387875479683758903220332327642057494176067265235224297320788648887516070352176372355637066781039711849187382385248537096374602718937064114240365243878387280942260454405853099173747959701087103525191926633765301872613932816612101032706016609773185027106121906620202303920780567231819788409154079817138248868794520465278266335735171731333L
L19269811027404299206028687570717977234969001752753724183152648404859311956259057671924559956341278026389787770710495404053658765773012432763548406560486308593196372975292242694700418831278650413509676693161250688440835094705591050322610474101571126628911992867531414493919515447561796840894848673232150178428129594435529013317965538018233716766585990385379624328393722678517266328984345313982150272174545879560596620256820435282145471374580836318862765521316859331007006098971984314270475826344909517687998222223980293932321291384433564903865676441308907253259769034973639449585L
L9131058742726976445562950358252238299973039746713448029143170884945194120903461430691056811895999741864601131820627639012672262379659391597625131678519720989790634848050882640533259059143460817504357627171950644350461289157437800780623750164747271864014363160464340263466581122358366626927310296188893521287700312315808523809645982845857036042855004576199814645072842646325915330635464187214435989977055872976449627147764327783855030629318196573662920751219696351462120240254301188045350189965750929038086636031478372591749575261928918313241638731530782688911608466336026571736678760407198118596492903939148126613929285001523521326453320763464481695588028L
tp5
b.