ccopy_reg
_reconstructor
p0
(crsa.key
PrivateKey
p1
c__builtin__
object
p2
Ntp3
Rp4
(L126738070414719558670863694340592137288337304885584826087199493113218032470803913194398759943620609561395749333661755170344457926232761274231554985613766958485368159514076315311311510845449090008559882595035882943612164632167681080947867199607459666261122137653880835111345665182666816063637001260833523237081L
I65537
L25861241980195075424652641781234091459128961933486822394435491728383428418024333294912715210126164024360977094451358040389649142431156698052986621088267299405844880494172583442655634365618948650149183278297792759142122860555363792732405876662404025017325673871275850787767886446022701593481596011185574463873L
L47584770173832645810858990709084620329111177644865948699117609347076430987901001871412199677342845441780249286144140755250678889274412904375919649139002366256198441L
L2663416676212384570695643684902962112624977388775586373327874336036481407239636169341365124508543275481009294499345774569484300181275511386261041L
L28091111482909062571926140829512716113233476538477786429347714848544181736895217379542343917431639338038605133460955821595335696585711290681599025062771603034714153L
L1266948668399851824029734224588398063095406718267221648664059728488293755751646513865710327853790021104421391824726559381779346905584083303579473L
L45560407941501864877821570056550436252893894546580088089002916384839446862729254571684582942039648023134916364107859166831389606297355069988936808792821681917739746L
tp5
b.